target datalayout = "e-m:e-p270:32:32-p271:32:32-p272:64:64-i64:64-i128:128-f80:128-n8:16:32:64-S128"
target triple = "x86_64-pc-linux-gnu"

%struct._rpc_proc_info_key = type { i32, i32, i32 }

; Function Attrs: mustprogress uwtable
define internal void @_ZL21onc_rpc_find_versionsPKc6ftenumPvS2_S2_(ptr noundef %0, i32 noundef %1, ptr noundef %2, ptr noundef %3, ptr noundef %4) #0 {
  %6 = alloca ptr, align 8
  %7 = alloca i32, align 4
  %8 = alloca ptr, align 8
  %9 = alloca ptr, align 8
  %10 = alloca ptr, align 8
  %11 = alloca ptr, align 8
  %12 = alloca ptr, align 8
  store ptr %0, ptr %6, align 8
  store i32 %1, ptr %7, align 4
  store ptr %2, ptr %8, align 8
  store ptr %3, ptr %9, align 8
  store ptr %4, ptr %10, align 8
  %13 = load ptr, ptr %10, align 8
  store ptr %13, ptr %11, align 8
  %14 = load ptr, ptr %11, align 8
  %15 = icmp ne ptr %14, null
  br i1 %15, label %17, label %16

16:                                               ; preds = %5
  br label %26

17:                                               ; preds = %5
  %18 = load ptr, ptr %8, align 8
  store ptr %18, ptr %12, align 8
  %19 = load ptr, ptr %11, align 8
  %20 = load ptr, ptr %12, align 8
  %21 = getelementptr inbounds %struct._rpc_proc_info_key, ptr %20, i32 0, i32 0
  %22 = load i32, ptr %21, align 4
  %23 = load ptr, ptr %12, align 8
  %24 = getelementptr inbounds %struct._rpc_proc_info_key, ptr %23, i32 0, i32 1
  %25 = load i32, ptr %24, align 4
  call void @_ZN28RpcServiceResponseTimeDialog23addOncRpcProgramVersionEjj(ptr noundef nonnull align 8 dereferenceable(316) %19, i32 noundef %22, i32 noundef %25)
  br label %26

26:                                               ; preds = %17, %16
  ret void
}